target datalayout = "e-m:e-p270:32:32-p271:32:32-p272:64:64-i64:64-i128:128-f80:128-n8:16:32:64-S128"
target triple = "x86_64-pc-linux-gnu"

%struct._GArray = type { ptr, i32 }
%struct.open_info = type { ptr, i32, ptr, ptr, ptr, ptr }

@open_info_arr = internal global ptr null, align 8
@open_routines = global ptr null, align 8
@.str = private unnamed_addr constant [2 x i8] c";\00", align 1
@.str.1 = private unnamed_addr constant [8 x i8] c"Wiretap\00", align 1
@.str.2 = private unnamed_addr constant [22 x i8] c"wiretap/file_access.c\00", align 1
@__func__.wtap_register_open_info = private unnamed_addr constant [24 x i8] c"wtap_register_open_info\00", align 1
@.str.3 = private unnamed_addr constant [36 x i8] c"No open_info name given to register\00", align 1
@.str.4 = private unnamed_addr constant [48 x i8] c"Name given to register_open_info already exists\00", align 1
@heuristic_open_routine_idx = internal global i32 0, align 4
@__func__.wtap_has_open_info = private unnamed_addr constant [19 x i8] c"wtap_has_open_info\00", align 1
@.str.7 = private unnamed_addr constant [37 x i8] c"No name given to wtap_has_open_info!\00", align 1

; Function Attrs: nounwind null_pointer_is_valid sspstrong uwtable
define internal void @set_heuristic_routine() #2 {
  %1 = alloca i32, align 4
  call void @llvm.lifetime.start.p0(i64 4, ptr %1) #12
  br label %2

2:                                                ; preds = %0
  br label %3

3:                                                ; preds = %2
  br label %4

4:                                                ; preds = %3
  store i32 0, ptr %1, align 4
  br label %5

5:                                                ; preds = %25, %4
  %6 = load i32, ptr %1, align 4
  %7 = load ptr, ptr @open_info_arr, align 8
  %8 = getelementptr inbounds nuw %struct._GArray, ptr %7, i32 0, i32 1
  %9 = load i32, ptr %8, align 8
  %10 = icmp ult i32 %6, %9
  br i1 %10, label %11, label %28

11:                                               ; preds = %5
  %12 = load ptr, ptr @open_routines, align 8
  %13 = load i32, ptr %1, align 4
  %14 = zext i32 %13 to i64
  %15 = getelementptr %struct.open_info, ptr %12, i64 %14
  %16 = getelementptr inbounds nuw %struct.open_info, ptr %15, i32 0, i32 1
  %17 = load i32, ptr %16, align 8
  %18 = icmp eq i32 %17, 1
  br i1 %18, label %19, label %21

19:                                               ; preds = %11
  %20 = load i32, ptr %1, align 4
  store i32 %20, ptr @heuristic_open_routine_idx, align 4
  br label %28

21:                                               ; preds = %11
  br label %22

22:                                               ; preds = %21
  br label %23

23:                                               ; preds = %22
  br label %24

24:                                               ; preds = %23
  br label %25

25:                                               ; preds = %24
  %26 = load i32, ptr %1, align 4
  %27 = add i32 %26, 1
  store i32 %27, ptr %1, align 4
  br label %5, !llvm.loop !9

28:                                               ; preds = %19, %5
  br label %29

29:                                               ; preds = %28
  br label %30

30:                                               ; preds = %29
  br label %31

31:                                               ; preds = %30
  call void @llvm.lifetime.end.p0(i64 4, ptr %1) #12
  ret void
}

; Function Attrs: null_pointer_is_valid sspstrong uwtable
define zeroext i1 @wtap_has_open_info(ptr noundef %0) #0 {
  %2 = alloca i1, align 1
  %3 = alloca ptr, align 8
  %4 = alloca i32, align 4
  %5 = alloca i32, align 4
  store ptr %0, ptr %3, align 8
  call void @llvm.lifetime.start.p0(i64 4, ptr %4) #12
  %6 = load ptr, ptr %3, align 8
  %7 = icmp ne ptr %6, null
  br i1 %7, label %9, label %8

8:                                                ; preds = %1
  call void (ptr, i32, ptr, i64, ptr, ptr, ...) @ws_log_fatal_full(ptr noundef @.str.1, i32 noundef 7, ptr noundef @.str.2, i64 noundef 578, ptr noundef @__func__.wtap_has_open_info, ptr noundef @.str.7) #13
  unreachable

9:                                                ; preds = %1
  store i32 0, ptr %4, align 4
  br label %10

10:                                               ; preds = %36, %9
  %11 = load i32, ptr %4, align 4
  %12 = load ptr, ptr @open_info_arr, align 8
  %13 = getelementptr inbounds nuw %struct._GArray, ptr %12, i32 0, i32 1
  %14 = load i32, ptr %13, align 8
  %15 = icmp ult i32 %11, %14
  br i1 %15, label %16, label %39

16:                                               ; preds = %10
  %17 = load ptr, ptr @open_routines, align 8
  %18 = load i32, ptr %4, align 4
  %19 = zext i32 %18 to i64
  %20 = getelementptr %struct.open_info, ptr %17, i64 %19
  %21 = getelementptr inbounds nuw %struct.open_info, ptr %20, i32 0, i32 0
  %22 = load ptr, ptr %21, align 8
  %23 = icmp ne ptr %22, null
  br i1 %23, label %24, label %35

24:                                               ; preds = %16
  %25 = load ptr, ptr @open_routines, align 8
  %26 = load i32, ptr %4, align 4
  %27 = zext i32 %26 to i64
  %28 = getelementptr %struct.open_info, ptr %25, i64 %27
  %29 = getelementptr inbounds nuw %struct.open_info, ptr %28, i32 0, i32 0
  %30 = load ptr, ptr %29, align 8
  %31 = load ptr, ptr %3, align 8
  %32 = call i32 @strcmp(ptr noundef %30, ptr noundef %31) #14
  %33 = icmp eq i32 %32, 0
  br i1 %33, label %34, label %35

34:                                               ; preds = %24
  store i1 true, ptr %2, align 1
  store i32 1, ptr %5, align 4
  br label %40

35:                                               ; preds = %24, %16
  br label %36

36:                                               ; preds = %35
  %37 = load i32, ptr %4, align 4
  %38 = add i32 %37, 1
  store i32 %38, ptr %4, align 4
  br label %10, !llvm.loop !12

39:                                               ; preds = %10
  store i1 false, ptr %2, align 1
  store i32 1, ptr %5, align 4
  br label %40

40:                                               ; preds = %39, %34
  call void @llvm.lifetime.end.p0(i64 4, ptr %4) #12
  %41 = load i1, ptr %2, align 1
  ret i1 %41
}

; Function Attrs: null_pointer_is_valid sspstrong uwtable
define void @wtap_register_open_info(ptr noundef %0, i1 noundef zeroext %1) #0 {
  %3 = alloca ptr, align 8
  %4 = alloca i8, align 1
  store ptr %0, ptr %3, align 8
  %5 = zext i1 %1 to i8
  store i8 %5, ptr %4, align 1
  %6 = load ptr, ptr %3, align 8
  %7 = icmp ne ptr %6, null
  br i1 %7, label %8, label %13

8:                                                ; preds = %2
  %9 = load ptr, ptr %3, align 8
  %10 = getelementptr inbounds nuw %struct.open_info, ptr %9, i32 0, i32 0
  %11 = load ptr, ptr %10, align 8
  %12 = icmp ne ptr %11, null
  br i1 %12, label %14, label %13

13:                                               ; preds = %8, %2
  call void (ptr, i32, ptr, i64, ptr, ptr, ...) @ws_log_fatal_full(ptr noundef @.str.1, i32 noundef 7, ptr noundef @.str.2, i64 noundef 516, ptr noundef @__func__.wtap_register_open_info, ptr noundef @.str.3) #13
  unreachable

14:                                               ; preds = %8
  %15 = load ptr, ptr %3, align 8
  %16 = getelementptr inbounds nuw %struct.open_info, ptr %15, i32 0, i32 0
  %17 = load ptr, ptr %16, align 8
  %18 = call zeroext i1 @wtap_has_open_info(ptr noundef %17)
  br i1 %18, label %19, label %20

19:                                               ; preds = %14
  call void (ptr, i32, ptr, i64, ptr, ptr, ...) @ws_log_fatal_full(ptr noundef @.str.1, i32 noundef 7, ptr noundef @.str.2, i64 noundef 522, ptr noundef @__func__.wtap_register_open_info, ptr noundef @.str.4) #13
  unreachable

20:                                               ; preds = %14
  %21 = load ptr, ptr %3, align 8
  %22 = getelementptr inbounds nuw %struct.open_info, ptr %21, i32 0, i32 3
  %23 = load ptr, ptr %22, align 8
  %24 = icmp ne ptr %23, null
  br i1 %24, label %25, label %32

25:                                               ; preds = %20
  %26 = load ptr, ptr %3, align 8
  %27 = getelementptr inbounds nuw %struct.open_info, ptr %26, i32 0, i32 3
  %28 = load ptr, ptr %27, align 8
  %29 = call ptr @g_strsplit(ptr noundef %28, ptr noundef @.str, i32 noundef 0)
  %30 = load ptr, ptr %3, align 8
  %31 = getelementptr inbounds nuw %struct.open_info, ptr %30, i32 0, i32 4
  store ptr %29, ptr %31, align 8
  br label %32

32:                                               ; preds = %25, %20
  %33 = load i8, ptr %4, align 1, !range !10, !noundef !11
  %34 = trunc i8 %33 to i1
  br i1 %34, label %35, label %44

35:                                               ; preds = %32
  %36 = load ptr, ptr %3, align 8
  %37 = getelementptr inbounds nuw %struct.open_info, ptr %36, i32 0, i32 1
  %38 = load i32, ptr %37, align 8
  %39 = icmp eq i32 %38, 0
  br i1 %39, label %40, label %44

40:                                               ; preds = %35
  %41 = load ptr, ptr @open_info_arr, align 8
  %42 = load ptr, ptr %3, align 8
  %43 = call ptr @g_array_prepend_vals(ptr noundef %41, ptr noundef %42, i32 noundef 1)
  br label %62

44:                                               ; preds = %35, %32
  %45 = load i8, ptr %4, align 1, !range !10, !noundef !11
  %46 = trunc i8 %45 to i1
  br i1 %46, label %56, label %47

47:                                               ; preds = %44
  %48 = load ptr, ptr %3, align 8
  %49 = getelementptr inbounds nuw %struct.open_info, ptr %48, i32 0, i32 1
  %50 = load i32, ptr %49, align 8
  %51 = icmp eq i32 %50, 1
  br i1 %51, label %52, label %56

52:                                               ; preds = %47
  %53 = load ptr, ptr @open_info_arr, align 8
  %54 = load ptr, ptr %3, align 8
  %55 = call ptr @g_array_append_vals(ptr noundef %53, ptr noundef %54, i32 noundef 1)
  br label %61

56:                                               ; preds = %47, %44
  %57 = load ptr, ptr @open_info_arr, align 8
  %58 = load i32, ptr @heuristic_open_routine_idx, align 4
  %59 = load ptr, ptr %3, align 8
  %60 = call ptr @g_array_insert_vals(ptr noundef %57, i32 noundef %58, ptr noundef %59, i32 noundef 1)
  br label %61

61:                                               ; preds = %56, %52
  br label %62

62:                                               ; preds = %61, %40
  %63 = load ptr, ptr @open_info_arr, align 8
  %64 = getelementptr inbounds nuw %struct._GArray, ptr %63, i32 0, i32 0
  %65 = load ptr, ptr %64, align 8
  store ptr %65, ptr @open_routines, align 8
  call void @set_heuristic_routine()
  ret void
}