; Function Attrs: null_pointer_is_valid sspstrong uwtable
define void @wtap_register_open_info(ptr noundef %0, i1 noundef zeroext %1) local_unnamed_addr #0 {
  %.not = icmp eq ptr %0, null
  br i1 %.not, label %5, label %3

3:                                                ; preds = %2
  %4 = load ptr, ptr %0, align 8
  %.not14 = icmp eq ptr %4, null
  br i1 %.not14, label %5, label %.preheader.i

5:                                                ; preds = %3, %2
  tail call void (ptr, i32, ptr, i64, ptr, ptr, ...) @ws_log_fatal_full(ptr noundef nonnull @.str.1, i32 noundef 7, ptr noundef nonnull @.str.2, i64 noundef 516, ptr noundef nonnull @__func__.wtap_register_open_info, ptr noundef nonnull @.str.3) #22
  unreachable

.preheader.i:                                     ; preds = %3
  %6 = load ptr, ptr @open_info_arr, align 8
  %7 = getelementptr inbounds nuw i8, ptr %6, i64 8
  %8 = load i32, ptr %7, align 8
  %.not13.i = icmp eq i32 %8, 0
  br i1 %.not13.i, label %.loopexit, label %.lr.ph.i

.lr.ph.i:                                         ; preds = %.preheader.i
  %9 = load ptr, ptr @open_routines, align 8
  %wide.trip.count.i = zext i32 %8 to i64
  br label %10

10:                                               ; preds = %16, %.lr.ph.i
  %indvars.iv.i = phi i64 [ 0, %.lr.ph.i ], [ %indvars.iv.next.i, %16 ]
  %11 = getelementptr %struct.open_info, ptr %9, i64 %indvars.iv.i
  %12 = load ptr, ptr %11, align 8
  %.not9.i = icmp eq ptr %12, null
  br i1 %.not9.i, label %16, label %13

13:                                               ; preds = %10
  %14 = tail call i32 @strcmp(ptr noundef nonnull dereferenceable(1) %12, ptr noundef nonnull readonly dereferenceable(1) %4) #23
  %15 = icmp eq i32 %14, 0
  br i1 %15, label %wtap_has_open_info.exit, label %16

16:                                               ; preds = %13, %10
  %indvars.iv.next.i = add nuw nsw i64 %indvars.iv.i, 1
  %exitcond.not.i = icmp eq i64 %indvars.iv.next.i, %wide.trip.count.i
  br i1 %exitcond.not.i, label %.loopexit, label %10, !llvm.loop !11

wtap_has_open_info.exit:                          ; preds = %13
  tail call void (ptr, i32, ptr, i64, ptr, ptr, ...) @ws_log_fatal_full(ptr noundef nonnull @.str.1, i32 noundef 7, ptr noundef nonnull @.str.2, i64 noundef 522, ptr noundef nonnull @__func__.wtap_register_open_info, ptr noundef nonnull @.str.4) #22
  unreachable

.loopexit:                                        ; preds = %16, %.preheader.i
  %17 = getelementptr inbounds nuw i8, ptr %0, i64 24
  %18 = load ptr, ptr %17, align 8
  %.not15 = icmp eq ptr %18, null
  br i1 %.not15, label %22, label %19

19:                                               ; preds = %.loopexit
  %20 = tail call ptr @g_strsplit(ptr noundef nonnull %18, ptr noundef nonnull @.str, i32 noundef 0)
  %21 = getelementptr inbounds nuw i8, ptr %0, i64 32
  store ptr %20, ptr %21, align 8
  br label %22

22:                                               ; preds = %19, %.loopexit
  %23 = getelementptr inbounds nuw i8, ptr %0, i64 8
  %24 = load i32, ptr %23, align 8
  %.pre = load ptr, ptr @open_info_arr, align 8
  br i1 %1, label %25, label %.critedge

25:                                               ; preds = %22
  %26 = icmp eq i32 %24, 0
  br i1 %26, label %27, label %32

27:                                               ; preds = %25
  %28 = tail call ptr @g_array_prepend_vals(ptr noundef %.pre, ptr noundef nonnull %0, i32 noundef 1)
  br label %35

.critedge:                                        ; preds = %22
  %29 = icmp eq i32 %24, 1
  br i1 %29, label %30, label %32

30:                                               ; preds = %.critedge
  %31 = tail call ptr @g_array_append_vals(ptr noundef %.pre, ptr noundef nonnull %0, i32 noundef 1)
  br label %35

32:                                               ; preds = %25, %.critedge
  %33 = load i32, ptr @heuristic_open_routine_idx, align 4
  %34 = tail call ptr @g_array_insert_vals(ptr noundef %.pre, i32 noundef %33, ptr noundef nonnull %0, i32 noundef 1)
  br label %35

35:                                               ; preds = %30, %32, %27
  %36 = load ptr, ptr @open_info_arr, align 8
  %37 = load ptr, ptr %36, align 8
  store ptr %37, ptr @open_routines, align 8
  %38 = getelementptr inbounds nuw i8, ptr %36, i64 8
  %39 = load i32, ptr %38, align 8
  %.not.i16 = icmp eq i32 %39, 0
  br i1 %.not.i16, label %set_heuristic_routine.exit, label %.lr.ph.i17

.lr.ph.i17:                                       ; preds = %35
  %wide.trip.count.i18 = zext i32 %39 to i64
  br label %40

40:                                               ; preds = %46, %.lr.ph.i17
  %indvars.iv.i19 = phi i64 [ 0, %.lr.ph.i17 ], [ %indvars.iv.next.i20, %46 ]
  %41 = getelementptr %struct.open_info, ptr %37, i64 %indvars.iv.i19, i32 1
  %42 = load i32, ptr %41, align 8
  %43 = icmp eq i32 %42, 1
  br i1 %43, label %44, label %46

44:                                               ; preds = %40
  %45 = trunc nuw i64 %indvars.iv.i19 to i32
  store i32 %45, ptr @heuristic_open_routine_idx, align 4
  br label %set_heuristic_routine.exit

46:                                               ; preds = %40
  %indvars.iv.next.i20 = add nuw nsw i64 %indvars.iv.i19, 1
  %exitcond.not.i21 = icmp eq i64 %indvars.iv.next.i20, %wide.trip.count.i18
  br i1 %exitcond.not.i21, label %set_heuristic_routine.exit, label %40, !llvm.loop !10

set_heuristic_routine.exit:                       ; preds = %46, %35, %44
  ret void
}